; Function Attrs: mustprogress uwtable
define hidden noundef ptr @_Z27mk_special_relations_tacticR11ast_managerRK10params_ref(ptr noundef nonnull align 8 dereferenceable(976) %m, ptr noundef nonnull align 8 dereferenceable(8) %p) local_unnamed_addr #3 personality ptr @__gxx_personality_v0 {
entry:
  %call = tail call noalias noundef ptr @_ZN6memory8allocateEm(i64 noundef 104)
  %m_ref_count.i.i = getelementptr inbounds i8, ptr %call, i64 8
  store i32 0, ptr %m_ref_count.i.i, align 8
  store ptr getelementptr inbounds ({ [25 x ptr] }, ptr @_ZTV24special_relations_tactic, i64 0, i32 0, i64 2), ptr %call, align 8
  %m2.i = getelementptr inbounds i8, ptr %call, i64 16
  store ptr %m, ptr %m2.i, align 8
  %m_params.i = getelementptr inbounds i8, ptr %call, i64 24
  tail call void @_ZN10params_refC1ERKS_(ptr noundef nonnull align 8 dereferenceable(8) %m_params.i, ptr noundef nonnull align 8 dereferenceable(8) %p)
  %m_pm.i = getelementptr inbounds i8, ptr %call, i64 32
  invoke void @_ZN18expr_pattern_matchC1ER11ast_manager(ptr noundef nonnull align 8 dereferenceable(64) %m_pm.i, ptr noundef nonnull align 8 dereferenceable(976) %m)
          to label %_ZN24special_relations_tacticC2ER11ast_managerRK10params_ref.exit unwind label %lpad3.i

lpad3.i:                                          ; preds = %entry
  %0 = landingpad { ptr, i32 }
          cleanup
  tail call void @_ZN10params_refD1Ev(ptr noundef nonnull align 8 dereferenceable(8) %m_params.i) #16
  resume { ptr, i32 } %0

_ZN24special_relations_tacticC2ER11ast_managerRK10params_ref.exit: ; preds = %entry
  %m_properties.i = getelementptr inbounds i8, ptr %call, i64 96
  store ptr null, ptr %m_properties.i, align 8
  ret ptr %call
}